---
triple:          'arm64-apple-darwin'
binary-path:     '/Users/sinibida/mydoc/bj/bj-1931/program'
relocations:
  - { offset: 0x3F, size: 0x8, addend: 0x0, symName: _n, symObjAddr: 0x314D8, symBinAddr: 0x10000C000, symSize: 0x0 }
  - { offset: 0x5B, size: 0x8, addend: 0x0, symName: _arr, symObjAddr: 0x314DC, symBinAddr: 0x10000C004, symSize: 0x0 }
  - { offset: 0xBA, size: 0x8, addend: 0x0, symName: _dp, symObjAddr: 0xF49E0, symBinAddr: 0x1000CF508, symSize: 0x0 }
  - { offset: 0x46C9, size: 0x8, addend: 0x0, symName: __ZNSt3__111__sift_downB8ne180100INS_17_ClassicAlgPolicyERPFiR11AppointmentS3_EPS2_EEvT1_OT0_NS_15iterator_traitsIS8_E15difference_typeES8_, symObjAddr: 0x11C0, symBinAddr: 0x100002FA8, symSize: 0x23C }
  - { offset: 0x47A2, size: 0x8, addend: 0x0, symName: __ZNSt3__117__floyd_sift_downB8ne180100INS_17_ClassicAlgPolicyERPFiR11AppointmentS3_EPS2_EET1_S8_OT0_NS_15iterator_traitsIS8_E15difference_typeE, symObjAddr: 0x162C, symBinAddr: 0x100003414, symSize: 0x10C }
  - { offset: 0x483A, size: 0x8, addend: 0x0, symName: __ZNSt3__111__introsortINS_17_ClassicAlgPolicyERPFiR11AppointmentS3_EPS2_Lb0EEEvT1_S8_T0_NS_15iterator_traitsIS8_E15difference_typeEb, symObjAddr: 0x18F8, symBinAddr: 0x1000036E0, symSize: 0x454 }
  - { offset: 0x4965, size: 0x8, addend: 0x0, symName: __ZNSt3__126__insertion_sort_unguardedB8ne180100INS_17_ClassicAlgPolicyERPFiR11AppointmentS3_EPS2_EEvT1_S8_T0_, symObjAddr: 0x1FB4, symBinAddr: 0x100003D9C, symSize: 0x138 }
  - { offset: 0x4A55, size: 0x8, addend: 0x0, symName: __ZNSt3__131__partition_with_equals_on_leftB8ne180100INS_17_ClassicAlgPolicyEP11AppointmentRPFiRS2_S4_EEET0_S8_S8_T1_, symObjAddr: 0x2334, symBinAddr: 0x10000411C, symSize: 0x250 }
  - { offset: 0x4B10, size: 0x8, addend: 0x0, symName: __ZNSt3__118__bitset_partitionB8ne180100INS_17_ClassicAlgPolicyEP11AppointmentRPFiRS2_S4_EEENS_4pairIT0_bEES9_S9_T1_, symObjAddr: 0x2584, symBinAddr: 0x10000436C, symSize: 0x350 }
  - { offset: 0x4C09, size: 0x8, addend: 0x0, symName: __ZNSt3__124__swap_bitmap_pos_withinB8ne180100INS_17_ClassicAlgPolicyEP11AppointmentEEvRT0_S5_RyS6_, symObjAddr: 0x35B4, symBinAddr: 0x10000539C, symSize: 0x1E0 }
  - { offset: 0x4CD6, size: 0x8, addend: 0x0, symName: __ZNSt3__132__partition_with_equals_on_rightB8ne180100INS_17_ClassicAlgPolicyEP11AppointmentRPFiRS2_S4_EEENS_4pairIT0_bEES9_S9_T1_, symObjAddr: 0x28D4, symBinAddr: 0x1000046BC, symSize: 0x254 }
  - { offset: 0x4DA0, size: 0x8, addend: 0x0, symName: __ZNSt3__127__insertion_sort_incompleteB8ne180100INS_17_ClassicAlgPolicyERPFiR11AppointmentS3_EPS2_EEbT1_S8_T0_, symObjAddr: 0x2B28, symBinAddr: 0x100004910, symSize: 0x328 }
  - { offset: 0x50A8, size: 0x8, addend: 0x0, symName: __ZNSt3__124__put_character_sequenceB8ne180100IcNS_11char_traitsIcEEEERNS_13basic_ostreamIT_T0_EES7_PKS4_m, symObjAddr: 0x50C4, symBinAddr: 0x100006EAC, symSize: 0x1F4 }
  - { offset: 0x6124, size: 0x8, addend: 0x0, symName: __ZNSt3__14sortB8ne180100IP11AppointmentPFiRS1_S3_EEEvT_S6_T0_, symObjAddr: 0x51C, symBinAddr: 0x100002304, symSize: 0x38 }
  - { offset: 0x617E, size: 0x8, addend: 0x0, symName: __ZNSt3__15beginB8ne180100I11AppointmentLm100000EEEPT_RAT0__S2_, symObjAddr: 0x554, symBinAddr: 0x10000233C, symSize: 0x14 }
  - { offset: 0x61BF, size: 0x8, addend: 0x0, symName: __ZNSt3__13endB8ne180100I11AppointmentLm100000EEEPT_RAT0__S2_, symObjAddr: 0x568, symBinAddr: 0x100002350, symSize: 0x20 }
  - { offset: 0x6200, size: 0x8, addend: 0x0, symName: __ZNSt3__13maxB8ne180100IjEERKT_S3_S3_, symObjAddr: 0x680, symBinAddr: 0x100002468, symSize: 0x2C }
  - { offset: 0x6243, size: 0x8, addend: 0x0, symName: __ZNSt3__1lsB8ne180100INS_11char_traitsIcEEEERNS_13basic_ostreamIcT_EES6_c, symObjAddr: 0x6AC, symBinAddr: 0x100002494, symSize: 0x34 }
  - { offset: 0x6289, size: 0x8, addend: 0x0, symName: __ZNSt3__112__to_addressB8ne180100I2DPEEPT_S3_, symObjAddr: 0xAE8, symBinAddr: 0x1000028D0, symSize: 0x14 }
  - { offset: 0x62BE, size: 0x8, addend: 0x0, symName: __ZNSt3__130__libcpp_is_constant_evaluatedB8ne180100Ev, symObjAddr: 0xB80, symBinAddr: 0x100002968, symSize: 0xC }
  - { offset: 0x62DB, size: 0x8, addend: 0x0, symName: __ZNSt3__119__libcpp_deallocateB8ne180100EPvmm, symObjAddr: 0xB8C, symBinAddr: 0x100002974, symSize: 0x30 }
  - { offset: 0x6323, size: 0x8, addend: 0x0, symName: __ZNSt3__127__do_deallocate_handle_sizeB8ne180100IJEEEvPvmDpT_, symObjAddr: 0xBBC, symBinAddr: 0x1000029A4, symSize: 0x28 }
  - { offset: 0x6361, size: 0x8, addend: 0x0, symName: __ZNSt3__124__libcpp_operator_deleteB8ne180100IJPvEEEvDpT_, symObjAddr: 0xBE4, symBinAddr: 0x1000029CC, symSize: 0x24 }
  - { offset: 0x6396, size: 0x8, addend: 0x0, symName: __ZNSt3__120__throw_out_of_rangeB8ne180100EPKc, symObjAddr: 0xCBC, symBinAddr: 0x100002AA4, symSize: 0x64 }
  - { offset: 0x63BE, size: 0x8, addend: 0x0, symName: __ZNSt3__111__sort_implB8ne180100INS_17_ClassicAlgPolicyEP11AppointmentPFiRS2_S4_EEEvT0_S7_RT1_, symObjAddr: 0xD98, symBinAddr: 0x100002B80, symSize: 0xC0 }
  - { offset: 0x6421, size: 0x8, addend: 0x0, symName: __ZNSt3__123__debug_randomize_rangeB8ne180100INS_17_ClassicAlgPolicyEP11AppointmentS3_EEvT0_T1_, symObjAddr: 0xE58, symBinAddr: 0x100002C40, symSize: 0x14 }
  - { offset: 0x6472, size: 0x8, addend: 0x0, symName: __ZNSt3__114__partial_sortB8ne180100INS_17_ClassicAlgPolicyEPFiR11AppointmentS3_EPS2_S6_EET1_S7_S7_T2_RT0_, symObjAddr: 0xE6C, symBinAddr: 0x100002C54, symSize: 0x94 }
  - { offset: 0x64FA, size: 0x8, addend: 0x0, symName: __ZNSt3__113__unwrap_iterB8ne180100IP11AppointmentNS_18__unwrap_iter_implIS2_Lb1EEELi0EEEDTclsrT0_8__unwrapclsr3stdE7declvalIT_EEEES6_, symObjAddr: 0xF00, symBinAddr: 0x100002CE8, symSize: 0x24 }
  - { offset: 0x653E, size: 0x8, addend: 0x0, symName: __ZNSt3__115__sort_dispatchB8ne180100INS_17_ClassicAlgPolicyEP11AppointmentPFiRS2_S4_EEEvT0_S7_RT1_, symObjAddr: 0xF24, symBinAddr: 0x100002D0C, symSize: 0x64 }
  - { offset: 0x65BC, size: 0x8, addend: 0x0, symName: __ZNSt3__135__check_strict_weak_ordering_sortedB8ne180100IP11AppointmentPFiRS1_S3_EEEvT_S6_RT0_, symObjAddr: 0xF88, symBinAddr: 0x100002D70, symSize: 0x18 }
  - { offset: 0x6751, size: 0x8, addend: 0x0, symName: __ZNSt3__119__partial_sort_implB8ne180100INS_17_ClassicAlgPolicyERPFiR11AppointmentS3_EPS2_S7_EET1_S8_S8_T2_OT0_, symObjAddr: 0xFB8, symBinAddr: 0x100002DA0, symSize: 0x11C }
  - { offset: 0x67E7, size: 0x8, addend: 0x0, symName: __ZNSt3__111__make_heapB8ne180100INS_17_ClassicAlgPolicyERPFiR11AppointmentS3_EPS2_EEvT1_S8_OT0_, symObjAddr: 0x10D4, symBinAddr: 0x100002EBC, symSize: 0xB8 }
  - { offset: 0x6889, size: 0x8, addend: 0x0, symName: __ZNSt3__111__sort_heapB8ne180100INS_17_ClassicAlgPolicyERPFiR11AppointmentS3_EPS2_EEvT1_S8_OT0_, symObjAddr: 0x13FC, symBinAddr: 0x1000031E4, symSize: 0xA8 }
  - { offset: 0x692B, size: 0x8, addend: 0x0, symName: __ZNSt3__19iter_swapB8ne180100IP11AppointmentS2_EEvT_T0_, symObjAddr: 0x14A4, symBinAddr: 0x10000328C, symSize: 0x2C }
  - { offset: 0x6973, size: 0x8, addend: 0x0, symName: __ZNSt3__14swapB8ne180100I11AppointmentEEvRT_S3_, symObjAddr: 0x14D0, symBinAddr: 0x1000032B8, symSize: 0x3C }
  - { offset: 0x69CF, size: 0x8, addend: 0x0, symName: __ZNSt3__110__pop_heapB8ne180100INS_17_ClassicAlgPolicyEPFiR11AppointmentS3_EPS2_EEvT1_S7_RT0_NS_15iterator_traitsIS7_E15difference_typeE, symObjAddr: 0x1538, symBinAddr: 0x100003320, symSize: 0xF4 }
  - { offset: 0x6A7F, size: 0x8, addend: 0x0, symName: __ZNSt3__19__sift_upB8ne180100INS_17_ClassicAlgPolicyERPFiR11AppointmentS3_EPS2_EEvT1_S8_OT0_NS_15iterator_traitsIS8_E15difference_typeE, symObjAddr: 0x1738, symBinAddr: 0x100003520, symSize: 0x134 }
  - { offset: 0x6B82, size: 0x8, addend: 0x0, symName: __ZNSt3__112__to_addressB8ne180100I11AppointmentEEPT_S3_, symObjAddr: 0x1890, symBinAddr: 0x100003678, symSize: 0x14 }
  - { offset: 0x6BB7, size: 0x8, addend: 0x0, symName: __ZNSt3__17__log2iB8ne180100IlEET_S1_, symObjAddr: 0x18A4, symBinAddr: 0x10000368C, symSize: 0x54 }
  - { offset: 0x6BEE, size: 0x8, addend: 0x0, symName: __ZNSt3__112__libcpp_clzB8ne180100Em, symObjAddr: 0x1D64, symBinAddr: 0x100003B4C, symSize: 0x1C }
  - { offset: 0x6C1A, size: 0x8, addend: 0x0, symName: __ZNSt3__124__sort3_maybe_branchlessB8ne180100INS_17_ClassicAlgPolicyERPFiR11AppointmentS3_EPS2_Li0EEEvT1_S8_S8_T0_, symObjAddr: 0x1D80, symBinAddr: 0x100003B68, symSize: 0x3C }
  - { offset: 0x6C8D, size: 0x8, addend: 0x0, symName: __ZNSt3__124__sort4_maybe_branchlessB8ne180100INS_17_ClassicAlgPolicyERPFiR11AppointmentS3_EPS2_Li0EEEvT1_S8_S8_S8_T0_, symObjAddr: 0x1DBC, symBinAddr: 0x100003BA4, symSize: 0x44 }
  - { offset: 0x6D0E, size: 0x8, addend: 0x0, symName: __ZNSt3__124__sort5_maybe_branchlessB8ne180100INS_17_ClassicAlgPolicyERPFiR11AppointmentS3_EPS2_Li0EEEvT1_S8_S8_S8_S8_T0_, symObjAddr: 0x1E00, symBinAddr: 0x100003BE8, symSize: 0x4C }
  - { offset: 0x6DA4, size: 0x8, addend: 0x0, symName: __ZNSt3__116__insertion_sortB8ne180100INS_17_ClassicAlgPolicyERPFiR11AppointmentS3_EPS2_EEvT1_S8_T0_, symObjAddr: 0x1E4C, symBinAddr: 0x100003C34, symSize: 0x168 }
  - { offset: 0x6E6B, size: 0x8, addend: 0x0, symName: __ZNSt3__114__partial_sortB8ne180100INS_17_ClassicAlgPolicyERPFiR11AppointmentS3_EPS2_S7_EET1_S8_S8_T2_RT0_, symObjAddr: 0x20EC, symBinAddr: 0x100003ED4, symSize: 0x94 }
  - { offset: 0x6EF3, size: 0x8, addend: 0x0, symName: __ZNSt3__17__sort3B8ne180100INS_17_ClassicAlgPolicyERPFiR11AppointmentS3_EPS2_EEjT1_S8_S8_T0_, symObjAddr: 0x2180, symBinAddr: 0x100003F68, symSize: 0x180 }
  - { offset: 0x6F72, size: 0x8, addend: 0x0, symName: __ZNSt3__17__sort4B8ne180100INS_17_ClassicAlgPolicyERPFiR11AppointmentS3_EPS2_EEvT1_S8_S8_S8_T0_, symObjAddr: 0x2E68, symBinAddr: 0x100004C50, symSize: 0xDC }
  - { offset: 0x6FED, size: 0x8, addend: 0x0, symName: __ZNSt3__17__sort5B8ne180100INS_17_ClassicAlgPolicyERPFiR11AppointmentS3_EPS2_EEvT1_S8_S8_S8_S8_T0_, symObjAddr: 0x2F44, symBinAddr: 0x100004D2C, symSize: 0x118 }
  - { offset: 0x7076, size: 0x8, addend: 0x0, symName: __ZNSt3__122__populate_left_bitsetB8ne180100IRPFiR11AppointmentS2_EPS1_S1_EEvT0_T_RT1_Ry, symObjAddr: 0x305C, symBinAddr: 0x100004E44, symSize: 0xB0 }
  - { offset: 0x7131, size: 0x8, addend: 0x0, symName: __ZNSt3__123__populate_right_bitsetB8ne180100IRPFiR11AppointmentS2_EPS1_S1_EEvT0_T_RT1_Ry, symObjAddr: 0x310C, symBinAddr: 0x100004EF4, symSize: 0xB0 }
  - { offset: 0x71EC, size: 0x8, addend: 0x0, symName: __ZNSt3__117__swap_bitmap_posB8ne180100INS_17_ClassicAlgPolicyEP11AppointmentEEvT0_S4_RyS5_, symObjAddr: 0x31BC, symBinAddr: 0x100004FA4, symSize: 0x100 }
  - { offset: 0x728D, size: 0x8, addend: 0x0, symName: __ZNSt3__133__bitset_partition_partial_blocksB8ne180100INS_17_ClassicAlgPolicyERPFiR11AppointmentS3_EPS2_S2_EEvRT1_S9_T0_RT2_RySD_, symObjAddr: 0x32BC, symBinAddr: 0x1000050A4, symSize: 0x2F8 }
  - { offset: 0x740E, size: 0x8, addend: 0x0, symName: __ZNSt3__19make_pairB8ne180100IRP11AppointmentRbEENS_4pairINS_18__unwrap_ref_decayIT_E4typeENS6_IT0_E4typeEEEOS7_OSA_, symObjAddr: 0x3794, symBinAddr: 0x10000557C, symSize: 0x38 }
  - { offset: 0x745D, size: 0x8, addend: 0x0, symName: __ZNSt3__112__libcpp_ctzB8ne180100Ey, symObjAddr: 0x37CC, symBinAddr: 0x1000055B4, symSize: 0x20 }
  - { offset: 0x7489, size: 0x8, addend: 0x0, symName: __ZNSt3__113__libcpp_blsrB8ne180100Ey, symObjAddr: 0x37EC, symBinAddr: 0x1000055D4, symSize: 0x2C }
  - { offset: 0x74B5, size: 0x8, addend: 0x0, symName: __ZNSt3__112__libcpp_clzB8ne180100Ey, symObjAddr: 0x384C, symBinAddr: 0x100005634, symSize: 0x1C }
  - { offset: 0x758E, size: 0x8, addend: 0x0, symName: __ZNSt3__13maxB8ne180100ImEERKT_S3_S3_, symObjAddr: 0x3EC0, symBinAddr: 0x100005CA8, symSize: 0x2C }
  - { offset: 0x75D1, size: 0x8, addend: 0x0, symName: __ZNSt3__13minB8ne180100ImEERKT_S3_S3_, symObjAddr: 0x3EEC, symBinAddr: 0x100005CD4, symSize: 0x2C }
  - { offset: 0x7815, size: 0x8, addend: 0x0, symName: __ZNSt3__13minB8ne180100ImNS_6__lessIvvEEEERKT_S5_S5_T0_, symObjAddr: 0x3F78, symBinAddr: 0x100005D60, symSize: 0x54 }
  - { offset: 0x78E5, size: 0x8, addend: 0x0, symName: __ZNSt3__120__throw_length_errorB8ne180100EPKc, symObjAddr: 0x4054, symBinAddr: 0x100005E3C, symSize: 0x64 }
  - { offset: 0x790D, size: 0x8, addend: 0x0, symName: __ZNSt3__13maxB8ne180100ImNS_6__lessIvvEEEERKT_S5_S5_T0_, symObjAddr: 0x4130, symBinAddr: 0x100005F18, symSize: 0x54 }
  - { offset: 0x7967, size: 0x8, addend: 0x0, symName: __ZNSt3__119__allocate_at_leastB8ne180100INS_9allocatorI2DPEEEENS_19__allocation_resultINS_16allocator_traitsIT_E7pointerEEERS6_m, symObjAddr: 0x4294, symBinAddr: 0x10000607C, symSize: 0x40 }
  - { offset: 0x79AA, size: 0x8, addend: 0x0, symName: __ZNSt3__117__libcpp_allocateB8ne180100Emm, symObjAddr: 0x4444, symBinAddr: 0x10000622C, symSize: 0x28 }
  - { offset: 0x79E7, size: 0x8, addend: 0x0, symName: __ZNSt3__121__libcpp_operator_newB8ne180100IJmEEEPvDpT_, symObjAddr: 0x446C, symBinAddr: 0x100006254, symSize: 0x24 }
  - { offset: 0x7A20, size: 0x8, addend: 0x0, symName: __ZNSt3__142__uninitialized_allocator_move_if_noexceptB8ne180100INS_9allocatorI2DPEENS_16reverse_iteratorIPS2_EES6_S2_vEET1_RT_T0_SA_S7_, symObjAddr: 0x44F4, symBinAddr: 0x1000062DC, symSize: 0xE8 }
  - { offset: 0x7A9D, size: 0x8, addend: 0x0, symName: __ZNSt3__14swapB8ne180100IP2DPEEvRT_S4_, symObjAddr: 0x4628, symBinAddr: 0x100006410, symSize: 0x3C }
  - { offset: 0x7AEE, size: 0x8, addend: 0x0, symName: __ZNSt3__1neB8ne180100IP2DPS2_EEbRKNS_16reverse_iteratorIT_EERKNS3_IT0_EE, symObjAddr: 0x4678, symBinAddr: 0x100006460, symSize: 0x48 }
  - { offset: 0x7B3A, size: 0x8, addend: 0x0, symName: __ZNSt3__114__construct_atB8ne180100I2DPJS1_EPS1_EEPT_S4_DpOT0_, symObjAddr: 0x46C0, symBinAddr: 0x1000064A8, symSize: 0x24 }
  - { offset: 0x7B8D, size: 0x8, addend: 0x0, symName: __ZNSt3__112__to_addressB8ne180100INS_16reverse_iteratorIP2DPEEvEEu7__decayIDTclsr19__to_address_helperIT_EE6__callclsr3stdE7declvalIRKS5_EEEEES7_, symObjAddr: 0x46E4, symBinAddr: 0x1000064CC, symSize: 0x24 }
  - { offset: 0x7BC3, size: 0x8, addend: 0x0, symName: __ZNSt3__14moveB8ne180100INS_16reverse_iteratorIP2DPEES4_EET0_T_S6_S5_, symObjAddr: 0x4750, symBinAddr: 0x100006538, symSize: 0x78 }
  - { offset: 0x7C46, size: 0x8, addend: 0x0, symName: __ZNSt3__16__moveB8ne180100INS_17_ClassicAlgPolicyENS_16reverse_iteratorIP2DPEES5_S5_EENS_4pairIT0_T2_EES7_T1_S8_, symObjAddr: 0x4838, symBinAddr: 0x100006620, symSize: 0x64 }
  - { offset: 0x7CB2, size: 0x8, addend: 0x0, symName: __ZNSt3__123__dispatch_copy_or_moveB8ne180100INS_17_ClassicAlgPolicyENS_11__move_loopIS1_EENS_14__move_trivialENS_16reverse_iteratorIP2DPEES8_S8_EENS_4pairIT2_T4_EESA_T3_SB_, symObjAddr: 0x489C, symBinAddr: 0x100006684, symSize: 0x64 }
  - { offset: 0x7D30, size: 0x8, addend: 0x0, symName: __ZNSt3__121__unwrap_and_dispatchB8ne180100INS_10__overloadINS_11__move_loopINS_17_ClassicAlgPolicyEEENS_14__move_trivialEEENS_16reverse_iteratorIP2DPEESA_SA_Li0EEENS_4pairIT0_T2_EESC_T1_SD_, symObjAddr: 0x4900, symBinAddr: 0x1000066E8, symSize: 0x12C }
  - { offset: 0x7DC0, size: 0x8, addend: 0x0, symName: __ZNSt3__114__unwrap_rangeB8ne180100INS_16reverse_iteratorIP2DPEES4_EENS_4pairIT0_S6_EET_S8_, symObjAddr: 0x4A2C, symBinAddr: 0x100006814, symSize: 0x84 }
  - { offset: 0x7F0B, size: 0x8, addend: 0x0, symName: __ZNSt3__113__unwrap_iterB8ne180100INS_16reverse_iteratorIP2DPEENS_18__unwrap_iter_implIS4_Lb0EEELi0EEEDTclsrT0_8__unwrapclsr3stdE7declvalIT_EEEES8_, symObjAddr: 0x4B50, symBinAddr: 0x100006938, symSize: 0x44 }
  - { offset: 0x7F4F, size: 0x8, addend: 0x0, symName: __ZNSt3__19make_pairB8ne180100INS_16reverse_iteratorIP2DPEES4_EENS_4pairINS_18__unwrap_ref_decayIT_E4typeENS6_IT0_E4typeEEEOS7_OSA_, symObjAddr: 0x4B94, symBinAddr: 0x10000697C, symSize: 0x38 }
  - { offset: 0x7F9E, size: 0x8, addend: 0x0, symName: __ZNSt3__114__rewrap_rangeB8ne180100INS_16reverse_iteratorIP2DPEES4_EET_S5_T0_, symObjAddr: 0x4BCC, symBinAddr: 0x1000069B4, symSize: 0x5C }
  - { offset: 0x7FEA, size: 0x8, addend: 0x0, symName: __ZNSt3__113__rewrap_iterB8ne180100INS_16reverse_iteratorIP2DPEES4_NS_18__unwrap_iter_implIS4_Lb0EEEEET_S7_T0_, symObjAddr: 0x4C28, symBinAddr: 0x100006A10, symSize: 0x88 }
  - { offset: 0x8092, size: 0x8, addend: 0x0, symName: __ZNSt3__13maxB8ne180100IjNS_6__lessIvvEEEERKT_S5_S5_T0_, symObjAddr: 0x503C, symBinAddr: 0x100006E24, symSize: 0x54 }
  - { offset: 0x80EC, size: 0x8, addend: 0x0, symName: __ZNSt3__116__pad_and_outputB8ne180100IcNS_11char_traitsIcEEEENS_19ostreambuf_iteratorIT_T0_EES6_PKS4_S8_S8_RNS_8ios_baseES4_, symObjAddr: 0x52D4, symBinAddr: 0x1000070BC, symSize: 0x248 }
  - { offset: 0x81BB, size: 0x8, addend: 0x0, symName: __ZNSt3__112__to_addressB8ne180100IKcEEPT_S3_, symObjAddr: 0x5844, symBinAddr: 0x10000762C, symSize: 0x14 }
  - { offset: 0x8223, size: 0x8, addend: 0x0, symName: __ZNSt3__19use_facetB8ne180100INS_5ctypeIcEEEERKT_RKNS_6localeE, symObjAddr: 0x5B3C, symBinAddr: 0x100007924, symSize: 0x2C }
  - { offset: 0x94D9, size: 0x8, addend: 0x0, symName: __ZSt28__throw_bad_array_new_lengthB8ne180100v, symObjAddr: 0x4410, symBinAddr: 0x1000061F8, symSize: 0x34 }
  - { offset: 0x96F8, size: 0x8, addend: 0x0, symName: _inp_st, symObjAddr: 0xF49F8, symBinAddr: 0x1000CF520, symSize: 0x0 }
  - { offset: 0x970D, size: 0x8, addend: 0x0, symName: _inp_et, symObjAddr: 0xF49FC, symBinAddr: 0x1000CF524, symSize: 0x0 }
  - { offset: 0x9722, size: 0x8, addend: 0x0, symName: _choice_a, symObjAddr: 0xF4A00, symBinAddr: 0x1000CF528, symSize: 0x0 }
  - { offset: 0x9737, size: 0x8, addend: 0x0, symName: _choice_b, symObjAddr: 0xF4A04, symBinAddr: 0x1000CF52C, symSize: 0x0 }
  - { offset: 0x9A23, size: 0x8, addend: 0x0, symName: __ZNSt3__16vectorI2DPNS_9allocatorIS1_EEE26__swap_out_circular_bufferERNS_14__split_bufferIS1_RS3_EE, symObjAddr: 0x3CF4, symBinAddr: 0x100005ADC, symSize: 0x110 }
  - { offset: 0x9B7C, size: 0x8, addend: 0x0, symName: __ZNSt3__16vectorI2DPNS_9allocatorIS1_EEEC1B8ne180100Ev, symObjAddr: 0x0, symBinAddr: 0x100001DE8, symSize: 0x2C }
  - { offset: 0x9BA4, size: 0x8, addend: 0x0, symName: __ZNSt3__16vectorI2DPNS_9allocatorIS1_EEED1B8ne180100Ev, symObjAddr: 0x2C, symBinAddr: 0x100001E14, symSize: 0x2C }
  - { offset: 0x9BCC, size: 0x8, addend: 0x0, symName: __Z7ap_compR11AppointmentS0_, symObjAddr: 0x58, symBinAddr: 0x100001E40, symSize: 0x70 }
  - { offset: 0x9C06, size: 0x8, addend: 0x0, symName: __Z10bin_searchj, symObjAddr: 0xC8, symBinAddr: 0x100001EB0, symSize: 0x114 }
  - { offset: 0x9C5C, size: 0x8, addend: 0x0, symName: __ZNKSt3__16vectorI2DPNS_9allocatorIS1_EEE4sizeB8ne180100Ev, symObjAddr: 0x1DC, symBinAddr: 0x100001FC4, symSize: 0x28 }
  - { offset: 0x9C80, size: 0x8, addend: 0x0, symName: __ZNSt3__16vectorI2DPNS_9allocatorIS1_EEE2atEm, symObjAddr: 0x204, symBinAddr: 0x100001FEC, symSize: 0x60 }
  - { offset: 0x9CB5, size: 0x8, addend: 0x0, symName: _main, symObjAddr: 0x264, symBinAddr: 0x10000204C, symSize: 0x28C }
  - { offset: 0x9D4D, size: 0x8, addend: 0x0, symName: __ZNSt3__19basic_iosIcNS_11char_traitsIcEEE3tieB8ne180100EPNS_13basic_ostreamIcS2_EE, symObjAddr: 0x4F0, symBinAddr: 0x1000022D8, symSize: 0x2C }
  - { offset: 0x9D91, size: 0x8, addend: 0x0, symName: __ZNSt3__16vectorI2DPNS_9allocatorIS1_EEE9push_backB8ne180100ERKS1_, symObjAddr: 0x588, symBinAddr: 0x100002370, symSize: 0x90 }
  - { offset: 0x9DD5, size: 0x8, addend: 0x0, symName: __ZNSt3__16vectorI2DPNS_9allocatorIS1_EEE3endB8ne180100Ev, symObjAddr: 0x618, symBinAddr: 0x100002400, symSize: 0x30 }
  - { offset: 0x9DFB, size: 0x8, addend: 0x0, symName: __ZNSt3__111__wrap_iterIP2DPEmmB8ne180100Ev, symObjAddr: 0x648, symBinAddr: 0x100002430, symSize: 0x20 }
  - { offset: 0x9E1F, size: 0x8, addend: 0x0, symName: __ZNKSt3__111__wrap_iterIP2DPEdeB8ne180100Ev, symObjAddr: 0x668, symBinAddr: 0x100002450, symSize: 0x18 }
  - { offset: 0x9E43, size: 0x8, addend: 0x0, symName: __ZNSt3__16vectorI2DPNS_9allocatorIS1_EEEC2B8ne180100Ev, symObjAddr: 0x6E0, symBinAddr: 0x1000024C8, symSize: 0x44 }
  - { offset: 0x9E7B, size: 0x8, addend: 0x0, symName: __ZNSt3__117__compressed_pairIP2DPNS_9allocatorIS1_EEEC1B8ne180100IDnNS_18__default_init_tagEEEOT_OT0_, symObjAddr: 0x724, symBinAddr: 0x10000250C, symSize: 0x3C }
  - { offset: 0x9ED1, size: 0x8, addend: 0x0, symName: __ZNSt3__117__compressed_pairIP2DPNS_9allocatorIS1_EEEC2B8ne180100IDnNS_18__default_init_tagEEEOT_OT0_, symObjAddr: 0x760, symBinAddr: 0x100002548, symSize: 0x40 }
  - { offset: 0x9F28, size: 0x8, addend: 0x0, symName: __ZNSt3__122__compressed_pair_elemIP2DPLi0ELb0EEC2B8ne180100IDnvEEOT_, symObjAddr: 0x7A0, symBinAddr: 0x100002588, symSize: 0x1C }
  - { offset: 0x9F68, size: 0x8, addend: 0x0, symName: __ZNSt3__122__compressed_pair_elemINS_9allocatorI2DPEELi1ELb1EEC2B8ne180100ENS_18__default_init_tagE, symObjAddr: 0x7BC, symBinAddr: 0x1000025A4, symSize: 0x2C }
  - { offset: 0x9F9B, size: 0x8, addend: 0x0, symName: __ZNSt3__19allocatorI2DPEC2B8ne180100Ev, symObjAddr: 0x7E8, symBinAddr: 0x1000025D0, symSize: 0x2C }
  - { offset: 0x9FC4, size: 0x8, addend: 0x0, symName: __ZNSt3__116__non_trivial_ifILb1ENS_9allocatorI2DPEEEC2B8ne180100Ev, symObjAddr: 0x814, symBinAddr: 0x1000025FC, symSize: 0x14 }
  - { offset: 0x9FEC, size: 0x8, addend: 0x0, symName: __ZNSt3__16vectorI2DPNS_9allocatorIS1_EEED2B8ne180100Ev, symObjAddr: 0x828, symBinAddr: 0x100002610, symSize: 0x3C }
  - { offset: 0xA014, size: 0x8, addend: 0x0, symName: __ZNSt3__16vectorI2DPNS_9allocatorIS1_EEE16__destroy_vectorC1B8ne180100ERS4_, symObjAddr: 0x864, symBinAddr: 0x10000264C, symSize: 0x34 }
  - { offset: 0xA04C, size: 0x8, addend: 0x0, symName: __ZNSt3__16vectorI2DPNS_9allocatorIS1_EEE16__destroy_vectorclB8ne180100Ev, symObjAddr: 0x898, symBinAddr: 0x100002680, symSize: 0x90 }
  - { offset: 0xA071, size: 0x8, addend: 0x0, symName: __ZNSt3__16vectorI2DPNS_9allocatorIS1_EEE16__destroy_vectorC2B8ne180100ERS4_, symObjAddr: 0x928, symBinAddr: 0x100002710, symSize: 0x20 }
  - { offset: 0xA0A9, size: 0x8, addend: 0x0, symName: __ZNSt3__16vectorI2DPNS_9allocatorIS1_EEE7__clearB8ne180100Ev, symObjAddr: 0x948, symBinAddr: 0x100002730, symSize: 0x28 }
  - { offset: 0xA0CD, size: 0x8, addend: 0x0, symName: __ZNKSt3__16vectorI2DPNS_9allocatorIS1_EEE17__annotate_deleteB8ne180100Ev, symObjAddr: 0x970, symBinAddr: 0x100002758, symSize: 0x10 }
  - { offset: 0xA0F2, size: 0x8, addend: 0x0, symName: __ZNSt3__116allocator_traitsINS_9allocatorI2DPEEE10deallocateB8ne180100ERS3_PS2_m, symObjAddr: 0x980, symBinAddr: 0x100002768, symSize: 0x34 }
  - { offset: 0xA134, size: 0x8, addend: 0x0, symName: __ZNSt3__16vectorI2DPNS_9allocatorIS1_EEE7__allocB8ne180100Ev, symObjAddr: 0x9B4, symBinAddr: 0x10000279C, symSize: 0x28 }
  - { offset: 0xA159, size: 0x8, addend: 0x0, symName: __ZNKSt3__16vectorI2DPNS_9allocatorIS1_EEE8capacityB8ne180100Ev, symObjAddr: 0x9DC, symBinAddr: 0x1000027C4, symSize: 0x40 }
  - { offset: 0xA17E, size: 0x8, addend: 0x0, symName: __ZNSt3__16vectorI2DPNS_9allocatorIS1_EEE22__base_destruct_at_endB8ne180100EPS1_, symObjAddr: 0xA1C, symBinAddr: 0x100002804, symSize: 0xA0 }
  - { offset: 0xA1C1, size: 0x8, addend: 0x0, symName: __ZNSt3__116allocator_traitsINS_9allocatorI2DPEEE7destroyB8ne180100IS2_vEEvRS3_PT_, symObjAddr: 0xABC, symBinAddr: 0x1000028A4, symSize: 0x2C }
  - { offset: 0xA1FD, size: 0x8, addend: 0x0, symName: __ZNSt3__19allocatorI2DPE7destroyB8ne180100EPS1_, symObjAddr: 0xAFC, symBinAddr: 0x1000028E4, symSize: 0x14 }
  - { offset: 0xA230, size: 0x8, addend: 0x0, symName: __ZNSt3__19allocatorI2DPE10deallocateB8ne180100EPS1_m, symObjAddr: 0xB10, symBinAddr: 0x1000028F8, symSize: 0x70 }
  - { offset: 0xA271, size: 0x8, addend: 0x0, symName: __ZNSt3__117__compressed_pairIP2DPNS_9allocatorIS1_EEE6secondB8ne180100Ev, symObjAddr: 0xC08, symBinAddr: 0x1000029F0, symSize: 0x24 }
  - { offset: 0xA295, size: 0x8, addend: 0x0, symName: __ZNSt3__122__compressed_pair_elemINS_9allocatorI2DPEELi1ELb1EE5__getB8ne180100Ev, symObjAddr: 0xC2C, symBinAddr: 0x100002A14, symSize: 0x14 }
  - { offset: 0xA2BA, size: 0x8, addend: 0x0, symName: __ZNKSt3__16vectorI2DPNS_9allocatorIS1_EEE9__end_capB8ne180100Ev, symObjAddr: 0xC40, symBinAddr: 0x100002A28, symSize: 0x28 }
  - { offset: 0xA2DF, size: 0x8, addend: 0x0, symName: __ZNKSt3__117__compressed_pairIP2DPNS_9allocatorIS1_EEE5firstB8ne180100Ev, symObjAddr: 0xC68, symBinAddr: 0x100002A50, symSize: 0x24 }
  - { offset: 0xA303, size: 0x8, addend: 0x0, symName: __ZNKSt3__122__compressed_pair_elemIP2DPLi0ELb0EE5__getB8ne180100Ev, symObjAddr: 0xC8C, symBinAddr: 0x100002A74, symSize: 0x14 }
  - { offset: 0xA328, size: 0x8, addend: 0x0, symName: __ZNKSt3__16vectorI2DPNS_9allocatorIS1_EEE20__throw_out_of_rangeB8ne180100Ev, symObjAddr: 0xCA0, symBinAddr: 0x100002A88, symSize: 0x1C }
  - { offset: 0xA34C, size: 0x8, addend: 0x0, symName: __ZNSt12out_of_rangeC1B8ne180100EPKc, symObjAddr: 0xD20, symBinAddr: 0x100002B08, symSize: 0x34 }
  - { offset: 0xA382, size: 0x8, addend: 0x0, symName: __ZNSt12out_of_rangeC2B8ne180100EPKc, symObjAddr: 0xD54, symBinAddr: 0x100002B3C, symSize: 0x44 }
  - { offset: 0xA3B9, size: 0x8, addend: 0x0, symName: __ZNSt3__18_IterOpsINS_17_ClassicAlgPolicyEE4nextB8ne180100IP11AppointmentEET_S6_S6_, symObjAddr: 0xFA0, symBinAddr: 0x100002D88, symSize: 0x18 }
  - { offset: 0xA3F5, size: 0x8, addend: 0x0, symName: __ZNSt3__18_IterOpsINS_17_ClassicAlgPolicyEE9iter_swapB8ne180100IRP11AppointmentS6_EEvOT_OT0_, symObjAddr: 0x118C, symBinAddr: 0x100002F74, symSize: 0x34 }
  - { offset: 0xA43D, size: 0x8, addend: 0x0, symName: __ZNSt3__18_IterOpsINS_17_ClassicAlgPolicyEE11__iter_moveB8ne180100IRP11AppointmentLi0EEEDTclsr3stdE4movedeclsr3stdE7declvalIRT_EEEEOS7_, symObjAddr: 0x150C, symBinAddr: 0x1000032F4, symSize: 0x28 }
  - { offset: 0xA46F, size: 0x8, addend: 0x0, symName: __ZNSt3__18_IterOpsINS_17_ClassicAlgPolicyEE25__validate_iter_referenceB8ne180100IRP11AppointmentEEvv, symObjAddr: 0x1534, symBinAddr: 0x10000331C, symSize: 0x4 }
  - { offset: 0xA48D, size: 0x8, addend: 0x0, symName: __ZNSt3__118__unwrap_iter_implIP11AppointmentLb1EE8__unwrapB8ne180100ES2_, symObjAddr: 0x186C, symBinAddr: 0x100003654, symSize: 0x24 }
  - { offset: 0xA4B5, size: 0x8, addend: 0x0, symName: __ZNSt3__18_IterOpsINS_17_ClassicAlgPolicyEE9iter_swapB8ne180100IRP11AppointmentS5_EEvOT_OT0_, symObjAddr: 0x2300, symBinAddr: 0x1000040E8, symSize: 0x34 }
  - { offset: 0xA4F8, size: 0x8, addend: 0x0, symName: __ZNSt3__18_IterOpsINS_17_ClassicAlgPolicyEE9iter_swapB8ne180100IP11AppointmentS5_EEvOT_OT0_, symObjAddr: 0x3818, symBinAddr: 0x100005600, symSize: 0x34 }
  - { offset: 0xA562, size: 0x8, addend: 0x0, symName: __ZNSt3__14pairIP11AppointmentbEC1B8ne180100ERKS2_RKb, symObjAddr: 0x3868, symBinAddr: 0x100005650, symSize: 0x3C }
  - { offset: 0xA5A7, size: 0x8, addend: 0x0, symName: __ZNSt3__14pairIP11AppointmentbEC2B8ne180100ERKS2_RKb, symObjAddr: 0x38A4, symBinAddr: 0x10000568C, symSize: 0x38 }
  - { offset: 0xA5EC, size: 0x8, addend: 0x0, symName: __ZNSt3__16vectorI2DPNS_9allocatorIS1_EEE9__end_capB8ne180100Ev, symObjAddr: 0x38DC, symBinAddr: 0x1000056C4, symSize: 0x28 }
  - { offset: 0xA611, size: 0x8, addend: 0x0, symName: __ZNSt3__16vectorI2DPNS_9allocatorIS1_EEE22__construct_one_at_endB8ne180100IJRKS1_EEEvDpOT_, symObjAddr: 0x3904, symBinAddr: 0x1000056EC, symSize: 0x98 }
  - { offset: 0xA65E, size: 0x8, addend: 0x0, symName: __ZNSt3__16vectorI2DPNS_9allocatorIS1_EEE21__push_back_slow_pathIRKS1_EEPS1_OT_, symObjAddr: 0x399C, symBinAddr: 0x100005784, symSize: 0xF0 }
  - { offset: 0xA6BB, size: 0x8, addend: 0x0, symName: __ZNSt3__117__compressed_pairIP2DPNS_9allocatorIS1_EEE5firstB8ne180100Ev, symObjAddr: 0x3A8C, symBinAddr: 0x100005874, symSize: 0x24 }
  - { offset: 0xA6DF, size: 0x8, addend: 0x0, symName: __ZNSt3__122__compressed_pair_elemIP2DPLi0ELb0EE5__getB8ne180100Ev, symObjAddr: 0x3AB0, symBinAddr: 0x100005898, symSize: 0x14 }
  - { offset: 0xA71C, size: 0x8, addend: 0x0, symName: __ZNSt3__16vectorI2DPNS_9allocatorIS1_EEE21_ConstructTransactionC1B8ne180100ERS4_m, symObjAddr: 0x3AC4, symBinAddr: 0x1000058AC, symSize: 0x3C }
  - { offset: 0xA763, size: 0x8, addend: 0x0, symName: __ZNSt3__116allocator_traitsINS_9allocatorI2DPEEE9constructB8ne180100IS2_JRKS2_EvEEvRS3_PT_DpOT0_, symObjAddr: 0x3B00, symBinAddr: 0x1000058E8, symSize: 0x34 }
  - { offset: 0xA7B9, size: 0x8, addend: 0x0, symName: __ZNSt3__16vectorI2DPNS_9allocatorIS1_EEE21_ConstructTransactionD1B8ne180100Ev, symObjAddr: 0x3B34, symBinAddr: 0x10000591C, symSize: 0x2C }
  - { offset: 0xA7E2, size: 0x8, addend: 0x0, symName: __ZNSt3__16vectorI2DPNS_9allocatorIS1_EEE21_ConstructTransactionC2B8ne180100ERS4_m, symObjAddr: 0x3B70, symBinAddr: 0x100005958, symSize: 0x44 }
  - { offset: 0xA828, size: 0x8, addend: 0x0, symName: __ZNSt3__19allocatorI2DPE9constructB8ne180100IS1_JRKS1_EEEvPT_DpOT0_, symObjAddr: 0x3BB4, symBinAddr: 0x10000599C, symSize: 0x28 }
  - { offset: 0xA87D, size: 0x8, addend: 0x0, symName: __ZNSt3__16vectorI2DPNS_9allocatorIS1_EEE21_ConstructTransactionD2B8ne180100Ev, symObjAddr: 0x3BDC, symBinAddr: 0x1000059C4, symSize: 0x20 }
  - { offset: 0xA8A5, size: 0x8, addend: 0x0, symName: __ZNKSt3__16vectorI2DPNS_9allocatorIS1_EEE11__recommendB8ne180100Em, symObjAddr: 0x3BFC, symBinAddr: 0x1000059E4, symSize: 0xB4 }
  - { offset: 0xA8F9, size: 0x8, addend: 0x0, symName: __ZNSt3__114__split_bufferI2DPRNS_9allocatorIS1_EEEC1EmmS4_, symObjAddr: 0x3CB0, symBinAddr: 0x100005A98, symSize: 0x44 }
  - { offset: 0xA94E, size: 0x8, addend: 0x0, symName: __ZNSt3__114__split_bufferI2DPRNS_9allocatorIS1_EEED1Ev, symObjAddr: 0x3E04, symBinAddr: 0x100005BEC, symSize: 0x2C }
  - { offset: 0xA978, size: 0x8, addend: 0x0, symName: __ZNKSt3__16vectorI2DPNS_9allocatorIS1_EEE8max_sizeEv, symObjAddr: 0x3E30, symBinAddr: 0x100005C18, symSize: 0x74 }
  - { offset: 0xA99F, size: 0x8, addend: 0x0, symName: __ZNKSt3__16vectorI2DPNS_9allocatorIS1_EEE20__throw_length_errorB8ne180100Ev, symObjAddr: 0x3EA4, symBinAddr: 0x100005C8C, symSize: 0x1C }
  - { offset: 0xA9CE, size: 0x8, addend: 0x0, symName: __ZNSt3__116allocator_traitsINS_9allocatorI2DPEEE8max_sizeB8ne180100IS3_vEEmRKS3_, symObjAddr: 0x3F18, symBinAddr: 0x100005D00, symSize: 0x24 }
  - { offset: 0xA9FC, size: 0x8, addend: 0x0, symName: __ZNKSt3__16vectorI2DPNS_9allocatorIS1_EEE7__allocB8ne180100Ev, symObjAddr: 0x3F3C, symBinAddr: 0x100005D24, symSize: 0x28 }
  - { offset: 0xAA21, size: 0x8, addend: 0x0, symName: __ZNSt3__114numeric_limitsIlE3maxB8ne180100Ev, symObjAddr: 0x3F64, symBinAddr: 0x100005D4C, symSize: 0x14 }
  - { offset: 0xAA48, size: 0x8, addend: 0x0, symName: __ZNKSt3__16__lessIvvEclB8ne180100ImmEEbRKT_RKT0_, symObjAddr: 0x3FCC, symBinAddr: 0x100005DB4, symSize: 0x34 }
  - { offset: 0xAA9A, size: 0x8, addend: 0x0, symName: __ZNKSt3__19allocatorI2DPE8max_sizeB8ne180100Ev, symObjAddr: 0x4000, symBinAddr: 0x100005DE8, symSize: 0x14 }
  - { offset: 0xAABF, size: 0x8, addend: 0x0, symName: __ZNKSt3__117__compressed_pairIP2DPNS_9allocatorIS1_EEE6secondB8ne180100Ev, symObjAddr: 0x4014, symBinAddr: 0x100005DFC, symSize: 0x24 }
  - { offset: 0xAAE3, size: 0x8, addend: 0x0, symName: __ZNKSt3__122__compressed_pair_elemINS_9allocatorI2DPEELi1ELb1EE5__getB8ne180100Ev, symObjAddr: 0x4038, symBinAddr: 0x100005E20, symSize: 0x14 }
  - { offset: 0xAB08, size: 0x8, addend: 0x0, symName: __ZNSt3__123__libcpp_numeric_limitsIlLb1EE3maxB8ne180100Ev, symObjAddr: 0x404C, symBinAddr: 0x100005E34, symSize: 0x8 }
  - { offset: 0xAB1B, size: 0x8, addend: 0x0, symName: __ZNSt12length_errorC1B8ne180100EPKc, symObjAddr: 0x40B8, symBinAddr: 0x100005EA0, symSize: 0x34 }
  - { offset: 0xAB51, size: 0x8, addend: 0x0, symName: __ZNSt12length_errorC2B8ne180100EPKc, symObjAddr: 0x40EC, symBinAddr: 0x100005ED4, symSize: 0x44 }
  - { offset: 0xAB88, size: 0x8, addend: 0x0, symName: __ZNSt3__114__split_bufferI2DPRNS_9allocatorIS1_EEEC2EmmS4_, symObjAddr: 0x4184, symBinAddr: 0x100005F6C, symSize: 0xD4 }
  - { offset: 0xABF9, size: 0x8, addend: 0x0, symName: __ZNSt3__117__compressed_pairIP2DPRNS_9allocatorIS1_EEEC1B8ne180100IDnS5_EEOT_OT0_, symObjAddr: 0x4258, symBinAddr: 0x100006040, symSize: 0x3C }
  - { offset: 0xAC50, size: 0x8, addend: 0x0, symName: __ZNSt3__114__split_bufferI2DPRNS_9allocatorIS1_EEE7__allocB8ne180100Ev, symObjAddr: 0x42D4, symBinAddr: 0x1000060BC, symSize: 0x28 }
  - { offset: 0xAC75, size: 0x8, addend: 0x0, symName: __ZNSt3__114__split_bufferI2DPRNS_9allocatorIS1_EEE9__end_capB8ne180100Ev, symObjAddr: 0x42FC, symBinAddr: 0x1000060E4, symSize: 0x28 }
  - { offset: 0xAC99, size: 0x8, addend: 0x0, symName: __ZNSt3__117__compressed_pairIP2DPRNS_9allocatorIS1_EEEC2B8ne180100IDnS5_EEOT_OT0_, symObjAddr: 0x4324, symBinAddr: 0x10000610C, symSize: 0x48 }
  - { offset: 0xACF0, size: 0x8, addend: 0x0, symName: __ZNSt3__122__compressed_pair_elemIRNS_9allocatorI2DPEELi1ELb0EEC2B8ne180100IS4_vEEOT_, symObjAddr: 0x436C, symBinAddr: 0x100006154, symSize: 0x20 }
  - { offset: 0xAD31, size: 0x8, addend: 0x0, symName: __ZNSt3__19allocatorI2DPE8allocateB8ne180100Em, symObjAddr: 0x438C, symBinAddr: 0x100006174, symSize: 0x84 }
  - { offset: 0xAD64, size: 0x8, addend: 0x0, symName: __ZNSt3__117__compressed_pairIP2DPRNS_9allocatorIS1_EEE6secondB8ne180100Ev, symObjAddr: 0x4490, symBinAddr: 0x100006278, symSize: 0x28 }
  - { offset: 0xAD88, size: 0x8, addend: 0x0, symName: __ZNSt3__122__compressed_pair_elemIRNS_9allocatorI2DPEELi1ELb0EE5__getB8ne180100Ev, symObjAddr: 0x44B8, symBinAddr: 0x1000062A0, symSize: 0x18 }
  - { offset: 0xADAD, size: 0x8, addend: 0x0, symName: __ZNSt3__117__compressed_pairIP2DPRNS_9allocatorIS1_EEE5firstB8ne180100Ev, symObjAddr: 0x44D0, symBinAddr: 0x1000062B8, symSize: 0x24 }
  - { offset: 0xADD1, size: 0x8, addend: 0x0, symName: __ZNSt3__116reverse_iteratorIP2DPEC1B8ne180100ES2_, symObjAddr: 0x45DC, symBinAddr: 0x1000063C4, symSize: 0x34 }
  - { offset: 0xAE07, size: 0x8, addend: 0x0, symName: __ZNKSt3__116reverse_iteratorIP2DPE4baseB8ne180100Ev, symObjAddr: 0x4610, symBinAddr: 0x1000063F8, symSize: 0x18 }
  - { offset: 0xAE2B, size: 0x8, addend: 0x0, symName: __ZNKSt3__16vectorI2DPNS_9allocatorIS1_EEE14__annotate_newB8ne180100Em, symObjAddr: 0x4664, symBinAddr: 0x10000644C, symSize: 0x14 }
  - { offset: 0xAE5E, size: 0x8, addend: 0x0, symName: __ZNKSt3__116reverse_iteratorIP2DPEdeB8ne180100Ev, symObjAddr: 0x4708, symBinAddr: 0x1000064F0, symSize: 0x28 }
  - { offset: 0xAE90, size: 0x8, addend: 0x0, symName: __ZNSt3__116reverse_iteratorIP2DPEppB8ne180100Ev, symObjAddr: 0x4730, symBinAddr: 0x100006518, symSize: 0x20 }
  - { offset: 0xAEBA, size: 0x8, addend: 0x0, symName: __ZNSt3__119__to_address_helperINS_16reverse_iteratorIP2DPEEvE6__callB8ne180100ERKS4_, symObjAddr: 0x47C8, symBinAddr: 0x1000065B0, symSize: 0x4C }
  - { offset: 0xAEDD, size: 0x8, addend: 0x0, symName: __ZNKSt3__116reverse_iteratorIP2DPEptB8ne180100Ev, symObjAddr: 0x4814, symBinAddr: 0x1000065FC, symSize: 0x24 }
  - { offset: 0xAF25, size: 0x8, addend: 0x0, symName: __ZNKSt3__111__move_loopINS_17_ClassicAlgPolicyEEclB8ne180100INS_16reverse_iteratorIP2DPEES7_S7_EENS_4pairIT_T1_EES9_T0_SA_, symObjAddr: 0x4AB0, symBinAddr: 0x100006898, symSize: 0xA0 }
  - { offset: 0xAF94, size: 0x8, addend: 0x0, symName: __ZNSt3__18_IterOpsINS_17_ClassicAlgPolicyEE11__iter_moveB8ne180100IRNS_16reverse_iteratorIP2DPEELi0EEEDTclsr3stdE4movedeclsr3stdE7declvalIRT_EEEEOS9_, symObjAddr: 0x4CB0, symBinAddr: 0x100006A98, symSize: 0x28 }
  - { offset: 0xAFC6, size: 0x8, addend: 0x0, symName: __ZNSt3__18_IterOpsINS_17_ClassicAlgPolicyEE25__validate_iter_referenceB8ne180100IRNS_16reverse_iteratorIP2DPEEEEvv, symObjAddr: 0x4CD8, symBinAddr: 0x100006AC0, symSize: 0x4 }
  - { offset: 0xAFE4, size: 0x8, addend: 0x0, symName: __ZNSt3__118__unwrap_iter_implINS_16reverse_iteratorIP2DPEELb0EE8__unwrapB8ne180100ES4_, symObjAddr: 0x4CDC, symBinAddr: 0x100006AC4, symSize: 0x24 }
  - { offset: 0xB006, size: 0x8, addend: 0x0, symName: __ZNSt3__14pairINS_16reverse_iteratorIP2DPEES4_EC1B8ne180100ERKS4_S7_, symObjAddr: 0x4D00, symBinAddr: 0x100006AE8, symSize: 0x3C }
  - { offset: 0xB04B, size: 0x8, addend: 0x0, symName: __ZNSt3__14pairINS_16reverse_iteratorIP2DPEES4_EC2B8ne180100ERKS4_S7_, symObjAddr: 0x4D3C, symBinAddr: 0x100006B24, symSize: 0x34 }
  - { offset: 0xB090, size: 0x8, addend: 0x0, symName: __ZNSt3__118__unwrap_iter_implINS_16reverse_iteratorIP2DPEELb0EE8__rewrapB8ne180100ES4_S4_, symObjAddr: 0x4D70, symBinAddr: 0x100006B58, symSize: 0x2C }
  - { offset: 0xB0BE, size: 0x8, addend: 0x0, symName: __ZNSt3__116reverse_iteratorIP2DPEC2B8ne180100ES2_, symObjAddr: 0x4D9C, symBinAddr: 0x100006B84, symSize: 0x28 }
  - { offset: 0xB0F5, size: 0x8, addend: 0x0, symName: __ZNSt3__114__split_bufferI2DPRNS_9allocatorIS1_EEED2Ev, symObjAddr: 0x4DC4, symBinAddr: 0x100006BAC, symSize: 0x80 }
  - { offset: 0xB120, size: 0x8, addend: 0x0, symName: __ZNSt3__114__split_bufferI2DPRNS_9allocatorIS1_EEE5clearB8ne180100Ev, symObjAddr: 0x4E44, symBinAddr: 0x100006C2C, symSize: 0x28 }
  - { offset: 0xB145, size: 0x8, addend: 0x0, symName: __ZNKSt3__114__split_bufferI2DPRNS_9allocatorIS1_EEE8capacityB8ne180100Ev, symObjAddr: 0x4E6C, symBinAddr: 0x100006C54, symSize: 0x40 }
  - { offset: 0xB16A, size: 0x8, addend: 0x0, symName: __ZNSt3__114__split_bufferI2DPRNS_9allocatorIS1_EEE17__destruct_at_endB8ne180100EPS1_, symObjAddr: 0x4EAC, symBinAddr: 0x100006C94, symSize: 0x2C }
  - { offset: 0xB19C, size: 0x8, addend: 0x0, symName: __ZNSt3__114__split_bufferI2DPRNS_9allocatorIS1_EEE17__destruct_at_endB8ne180100EPS1_NS_17integral_constantIbLb0EEE, symObjAddr: 0x4ED8, symBinAddr: 0x100006CC0, symSize: 0x94 }
  - { offset: 0xB1DC, size: 0x8, addend: 0x0, symName: __ZNKSt3__114__split_bufferI2DPRNS_9allocatorIS1_EEE9__end_capB8ne180100Ev, symObjAddr: 0x4F6C, symBinAddr: 0x100006D54, symSize: 0x28 }
  - { offset: 0xB201, size: 0x8, addend: 0x0, symName: __ZNKSt3__117__compressed_pairIP2DPRNS_9allocatorIS1_EEE5firstB8ne180100Ev, symObjAddr: 0x4F94, symBinAddr: 0x100006D7C, symSize: 0x24 }
  - { offset: 0xB226, size: 0x8, addend: 0x0, symName: __ZNSt3__16vectorI2DPNS_9allocatorIS1_EEE11__make_iterB8ne180100EPS1_, symObjAddr: 0x4FB8, symBinAddr: 0x100006DA0, symSize: 0x30 }
  - { offset: 0xB259, size: 0x8, addend: 0x0, symName: __ZNSt3__111__wrap_iterIP2DPEC1B8ne180100ES2_, symObjAddr: 0x4FE8, symBinAddr: 0x100006DD0, symSize: 0x34 }
  - { offset: 0xB290, size: 0x8, addend: 0x0, symName: __ZNSt3__111__wrap_iterIP2DPEC2B8ne180100ES2_, symObjAddr: 0x501C, symBinAddr: 0x100006E04, symSize: 0x20 }
  - { offset: 0xB2D0, size: 0x8, addend: 0x0, symName: __ZNKSt3__16__lessIvvEclB8ne180100IjjEEbRKT_RKT0_, symObjAddr: 0x5090, symBinAddr: 0x100006E78, symSize: 0x34 }
  - { offset: 0xB340, size: 0x8, addend: 0x0, symName: __ZNKSt3__113basic_ostreamIcNS_11char_traitsIcEEE6sentrycvbB8ne180100Ev, symObjAddr: 0x52B8, symBinAddr: 0x1000070A0, symSize: 0x1C }
  - { offset: 0xB364, size: 0x8, addend: 0x0, symName: __ZNSt3__119ostreambuf_iteratorIcNS_11char_traitsIcEEEC1B8ne180100ERNS_13basic_ostreamIcS2_EE, symObjAddr: 0x551C, symBinAddr: 0x100007304, symSize: 0x34 }
  - { offset: 0xB39A, size: 0x8, addend: 0x0, symName: __ZNKSt3__18ios_base5flagsB8ne180100Ev, symObjAddr: 0x5550, symBinAddr: 0x100007338, symSize: 0x18 }
  - { offset: 0xB3C0, size: 0x8, addend: 0x0, symName: __ZNKSt3__19basic_iosIcNS_11char_traitsIcEEE4fillB8ne180100Ev, symObjAddr: 0x5568, symBinAddr: 0x100007350, symSize: 0x64 }
  - { offset: 0xB3E6, size: 0x8, addend: 0x0, symName: __ZNKSt3__119ostreambuf_iteratorIcNS_11char_traitsIcEEE6failedB8ne180100Ev, symObjAddr: 0x55CC, symBinAddr: 0x1000073B4, symSize: 0x24 }
  - { offset: 0xB40B, size: 0x8, addend: 0x0, symName: __ZNSt3__19basic_iosIcNS_11char_traitsIcEEE8setstateB8ne180100Ej, symObjAddr: 0x55F0, symBinAddr: 0x1000073D8, symSize: 0x2C }
  - { offset: 0xB43E, size: 0x8, addend: 0x0, symName: __ZNKSt3__18ios_base5widthB8ne180100Ev, symObjAddr: 0x561C, symBinAddr: 0x100007404, symSize: 0x18 }
  - { offset: 0xB465, size: 0x8, addend: 0x0, symName: __ZNSt3__115basic_streambufIcNS_11char_traitsIcEEE5sputnB8ne180100EPKcl, symObjAddr: 0x5634, symBinAddr: 0x10000741C, symSize: 0x3C }
  - { offset: 0xB4A5, size: 0x8, addend: 0x0, symName: __ZNSt3__112basic_stringIcNS_11char_traitsIcEENS_9allocatorIcEEEC1B8ne180100Emc, symObjAddr: 0x5670, symBinAddr: 0x100007458, symSize: 0x3C }
  - { offset: 0xB4EC, size: 0x8, addend: 0x0, symName: __ZNKSt3__112basic_stringIcNS_11char_traitsIcEENS_9allocatorIcEEE4dataB8ne180100Ev, symObjAddr: 0x56AC, symBinAddr: 0x100007494, symSize: 0x28 }
  - { offset: 0xB510, size: 0x8, addend: 0x0, symName: __ZNSt3__18ios_base5widthB8ne180100El, symObjAddr: 0x56D4, symBinAddr: 0x1000074BC, symSize: 0x2C }
  - { offset: 0xB554, size: 0x8, addend: 0x0, symName: __ZNSt3__112basic_stringIcNS_11char_traitsIcEENS_9allocatorIcEEEC2B8ne180100Emc, symObjAddr: 0x5700, symBinAddr: 0x1000074E8, symSize: 0x4C }
  - { offset: 0xB59A, size: 0x8, addend: 0x0, symName: __ZNSt3__117__compressed_pairINS_12basic_stringIcNS_11char_traitsIcEENS_9allocatorIcEEE5__repES5_EC1B8ne180100INS_18__default_init_tagESA_EEOT_OT0_, symObjAddr: 0x574C, symBinAddr: 0x100007534, symSize: 0x3C }
  - { offset: 0xB5F0, size: 0x8, addend: 0x0, symName: __ZNSt3__117__compressed_pairINS_12basic_stringIcNS_11char_traitsIcEENS_9allocatorIcEEE5__repES5_EC2B8ne180100INS_18__default_init_tagESA_EEOT_OT0_, symObjAddr: 0x5788, symBinAddr: 0x100007570, symSize: 0x3C }
  - { offset: 0xB647, size: 0x8, addend: 0x0, symName: __ZNSt3__122__compressed_pair_elemINS_12basic_stringIcNS_11char_traitsIcEENS_9allocatorIcEEE5__repELi0ELb0EEC2B8ne180100ENS_18__default_init_tagE, symObjAddr: 0x57C4, symBinAddr: 0x1000075AC, symSize: 0x14 }
  - { offset: 0xB67A, size: 0x8, addend: 0x0, symName: __ZNSt3__122__compressed_pair_elemINS_9allocatorIcEELi1ELb1EEC2B8ne180100ENS_18__default_init_tagE, symObjAddr: 0x57D8, symBinAddr: 0x1000075C0, symSize: 0x2C }
  - { offset: 0xB6AD, size: 0x8, addend: 0x0, symName: __ZNSt3__19allocatorIcEC2B8ne180100Ev, symObjAddr: 0x5804, symBinAddr: 0x1000075EC, symSize: 0x2C }
  - { offset: 0xB6D6, size: 0x8, addend: 0x0, symName: __ZNSt3__116__non_trivial_ifILb1ENS_9allocatorIcEEEC2B8ne180100Ev, symObjAddr: 0x5830, symBinAddr: 0x100007618, symSize: 0x14 }
  - { offset: 0xB6FF, size: 0x8, addend: 0x0, symName: __ZNKSt3__112basic_stringIcNS_11char_traitsIcEENS_9allocatorIcEEE13__get_pointerB8ne180100Ev, symObjAddr: 0x5858, symBinAddr: 0x100007640, symSize: 0x54 }
  - { offset: 0xB724, size: 0x8, addend: 0x0, symName: __ZNKSt3__112basic_stringIcNS_11char_traitsIcEENS_9allocatorIcEEE9__is_longB8ne180100Ev, symObjAddr: 0x58AC, symBinAddr: 0x100007694, symSize: 0x94 }
  - { offset: 0xB749, size: 0x8, addend: 0x0, symName: __ZNKSt3__112basic_stringIcNS_11char_traitsIcEENS_9allocatorIcEEE18__get_long_pointerB8ne180100Ev, symObjAddr: 0x5940, symBinAddr: 0x100007728, symSize: 0x28 }
  - { offset: 0xB76E, size: 0x8, addend: 0x0, symName: __ZNKSt3__112basic_stringIcNS_11char_traitsIcEENS_9allocatorIcEEE19__get_short_pointerB8ne180100Ev, symObjAddr: 0x5968, symBinAddr: 0x100007750, symSize: 0x28 }
  - { offset: 0xB793, size: 0x8, addend: 0x0, symName: __ZNKSt3__117__compressed_pairINS_12basic_stringIcNS_11char_traitsIcEENS_9allocatorIcEEE5__repES5_E5firstB8ne180100Ev, symObjAddr: 0x5990, symBinAddr: 0x100007778, symSize: 0x24 }
  - { offset: 0xB7B7, size: 0x8, addend: 0x0, symName: __ZNKSt3__122__compressed_pair_elemINS_12basic_stringIcNS_11char_traitsIcEENS_9allocatorIcEEE5__repELi0ELb0EE5__getB8ne180100Ev, symObjAddr: 0x59B4, symBinAddr: 0x10000779C, symSize: 0x14 }
  - { offset: 0xB7DC, size: 0x8, addend: 0x0, symName: __ZNSt3__114pointer_traitsIPKcE10pointer_toB8ne180100ERS1_, symObjAddr: 0x59C8, symBinAddr: 0x1000077B0, symSize: 0x14 }
  - { offset: 0xB7FE, size: 0x8, addend: 0x0, symName: __ZNSt3__119ostreambuf_iteratorIcNS_11char_traitsIcEEEC2B8ne180100ERNS_13basic_ostreamIcS2_EE, symObjAddr: 0x59DC, symBinAddr: 0x1000077C4, symSize: 0x68 }
  - { offset: 0xB834, size: 0x8, addend: 0x0, symName: __ZNKSt3__19basic_iosIcNS_11char_traitsIcEEE5rdbufB8ne180100Ev, symObjAddr: 0x5A44, symBinAddr: 0x10000782C, symSize: 0x24 }
  - { offset: 0xB85A, size: 0x8, addend: 0x0, symName: __ZNKSt3__18ios_base5rdbufB8ne180100Ev, symObjAddr: 0x5A68, symBinAddr: 0x100007850, symSize: 0x18 }
  - { offset: 0xB87F, size: 0x8, addend: 0x0, symName: __ZNSt3__111char_traitsIcE11eq_int_typeB8ne180100Eii, symObjAddr: 0x5A80, symBinAddr: 0x100007868, symSize: 0x28 }
  - { offset: 0xB8B2, size: 0x8, addend: 0x0, symName: __ZNSt3__111char_traitsIcE3eofB8ne180100Ev, symObjAddr: 0x5AA8, symBinAddr: 0x100007890, symSize: 0x8 }
  - { offset: 0xB8C5, size: 0x8, addend: 0x0, symName: __ZNKSt3__19basic_iosIcNS_11char_traitsIcEEE5widenB8ne180100Ec, symObjAddr: 0x5AB0, symBinAddr: 0x100007898, symSize: 0x8C }
  - { offset: 0xB93D, size: 0x8, addend: 0x0, symName: __ZNKSt3__15ctypeIcE5widenB8ne180100Ec, symObjAddr: 0x5B68, symBinAddr: 0x100007950, symSize: 0x38 }
  - { offset: 0xB970, size: 0x8, addend: 0x0, symName: __ZNSt3__18ios_base8setstateB8ne180100Ej, symObjAddr: 0x5BA0, symBinAddr: 0x100007988, symSize: 0x34 }
...
